; Function Attrs: nounwind uwtable
define i32 @EVP_PKEY_print_public(ptr noundef %0, ptr noundef %1, i32 noundef %2, ptr noundef %3) local_unnamed_addr #0 {
  %5 = getelementptr inbounds nuw i8, ptr %1, i64 8
  %6 = load ptr, ptr %5, align 8, !tbaa !20
  %.not = icmp eq ptr %6, null
  br i1 %.not, label %10, label %7

7:                                                ; preds = %4
  %8 = getelementptr inbounds nuw i8, ptr %6, i64 56
  %9 = load ptr, ptr %8, align 8, !tbaa !91
  br label %10

10:                                               ; preds = %4, %7
  %11 = phi ptr [ %9, %7 ], [ null, %4 ]
  %12 = tail call fastcc i32 @print_pkey(ptr noundef nonnull %1, ptr noundef %0, i32 noundef %2, i32 noundef 134, ptr noundef %11, ptr noundef %3)
  ret i32 %12
}